target datalayout = "e-m:e-p270:32:32-p271:32:32-p272:64:64-i64:64-i128:128-f80:128-n8:16:32:64-S128"
target triple = "x86_64-pc-linux-gnu"

%"class.nanogui::TextArea" = type { %"class.nanogui::Widget.base", %"class.std::vector.4", %"class.nanogui::Color", %"class.nanogui::Color", %"class.nanogui::Color", %"class.std::__cxx11::basic_string", %"struct.nanogui::Array", %"struct.nanogui::Array", i32, i8, %"struct.nanogui::Array", %"struct.nanogui::Array" }
%"class.nanogui::Widget.base" = type <{ %"class.nanogui::Object.base", [4 x i8], ptr, %"class.nanogui::ref", %"class.nanogui::ref.0", %"struct.nanogui::Array", %"struct.nanogui::Array", %"struct.nanogui::Array", %"class.std::vector", i8, i8, i8, i8, [4 x i8], %"class.std::__cxx11::basic_string", i32, float, i32 }>
%"class.nanogui::Object.base" = type <{ ptr, %"struct.std::atomic" }>
%"struct.std::atomic" = type { %"struct.std::__atomic_base" }
%"struct.std::__atomic_base" = type { i32 }
%"class.nanogui::ref" = type { ptr }
%"class.nanogui::ref.0" = type { ptr }
%"class.std::vector" = type { %"struct.std::_Vector_base" }
%"struct.std::_Vector_base" = type { %"struct.std::_Vector_base<nanogui::Widget *, std::allocator<nanogui::Widget *>>::_Vector_impl" }
%"struct.std::_Vector_base<nanogui::Widget *, std::allocator<nanogui::Widget *>>::_Vector_impl" = type { %"struct.std::_Vector_base<nanogui::Widget *, std::allocator<nanogui::Widget *>>::_Vector_impl_data" }
%"struct.std::_Vector_base<nanogui::Widget *, std::allocator<nanogui::Widget *>>::_Vector_impl_data" = type { ptr, ptr, ptr }
%"class.std::vector.4" = type { %"struct.std::_Vector_base.5" }
%"struct.std::_Vector_base.5" = type { %"struct.std::_Vector_base<nanogui::TextArea::Block, std::allocator<nanogui::TextArea::Block>>::_Vector_impl" }
%"struct.std::_Vector_base<nanogui::TextArea::Block, std::allocator<nanogui::TextArea::Block>>::_Vector_impl" = type { %"struct.std::_Vector_base<nanogui::TextArea::Block, std::allocator<nanogui::TextArea::Block>>::_Vector_impl_data" }
%"struct.std::_Vector_base<nanogui::TextArea::Block, std::allocator<nanogui::TextArea::Block>>::_Vector_impl_data" = type { ptr, ptr, ptr }
%"class.nanogui::Color" = type { %"struct.nanogui::Array.9" }
%"struct.nanogui::Array.9" = type { [4 x float] }
%"class.std::__cxx11::basic_string" = type { %"struct.std::__cxx11::basic_string<char>::_Alloc_hider", i64, %union.anon }
%"struct.std::__cxx11::basic_string<char>::_Alloc_hider" = type { ptr }
%union.anon = type { i64, [8 x i8] }
%"struct.nanogui::Array" = type { [2 x i32] }
%"class.nanogui::Widget" = type <{ %"class.nanogui::Object.base", [4 x i8], ptr, %"class.nanogui::ref", %"class.nanogui::ref.0", %"struct.nanogui::Array", %"struct.nanogui::Array", %"struct.nanogui::Array", %"class.std::vector", i8, i8, i8, i8, [4 x i8], %"class.std::__cxx11::basic_string", i32, float, i32, [4 x i8] }>

; Function Attrs: mustprogress nounwind uwtable
define linkonce_odr hidden noundef nonnull align 4 dereferenceable(4) ptr @_ZN7nanogui5ArrayIiLm2EEixEm(ptr noundef nonnull align 4 dereferenceable(8) %0, i64 noundef %1) #2 comdat align 2 {
  %3 = alloca ptr, align 8
  %4 = alloca i64, align 8
  store ptr %0, ptr %3, align 8
  store i64 %1, ptr %4, align 8
  %5 = load ptr, ptr %3, align 8
  %6 = getelementptr inbounds %"struct.nanogui::Array", ptr %5, i32 0, i32 0
  %7 = load i64, ptr %4, align 8
  %8 = getelementptr inbounds [2 x i32], ptr %6, i64 0, i64 %7
  ret ptr %8
}

; Function Attrs: mustprogress nounwind uwtable
define linkonce_odr hidden void @_ZN7nanogui5ArrayIiLm2EEC2Ev(ptr noundef nonnull align 4 dereferenceable(8) %0) unnamed_addr #2 comdat align 2 {
  %2 = alloca ptr, align 8
  store ptr %0, ptr %2, align 8
  ret void
}

; Function Attrs: mustprogress nounwind uwtable
define linkonce_odr hidden noundef zeroext i1 @_ZNK7nanogui5ArrayIiLm2EEeqERKS1_(ptr noundef nonnull align 4 dereferenceable(8) %0, ptr noundef nonnull align 4 dereferenceable(8) %1) #2 comdat align 2 {
  %3 = alloca i1, align 1
  %4 = alloca ptr, align 8
  %5 = alloca ptr, align 8
  %6 = alloca i64, align 8
  store ptr %0, ptr %4, align 8
  store ptr %1, ptr %5, align 8
  %7 = load ptr, ptr %4, align 8
  store i64 0, ptr %6, align 8
  br label %8

8:                                                ; preds = %24, %2
  %9 = load i64, ptr %6, align 8
  %10 = icmp ult i64 %9, 2
  br i1 %10, label %11, label %27

11:                                               ; preds = %8
  %12 = getelementptr inbounds %"struct.nanogui::Array", ptr %7, i32 0, i32 0
  %13 = load i64, ptr %6, align 8
  %14 = getelementptr inbounds [2 x i32], ptr %12, i64 0, i64 %13
  %15 = load i32, ptr %14, align 4
  %16 = load ptr, ptr %5, align 8
  %17 = getelementptr inbounds %"struct.nanogui::Array", ptr %16, i32 0, i32 0
  %18 = load i64, ptr %6, align 8
  %19 = getelementptr inbounds [2 x i32], ptr %17, i64 0, i64 %18
  %20 = load i32, ptr %19, align 4
  %21 = icmp ne i32 %15, %20
  br i1 %21, label %22, label %23

22:                                               ; preds = %11
  store i1 false, ptr %3, align 1
  br label %28

23:                                               ; preds = %11
  br label %24

24:                                               ; preds = %23
  %25 = load i64, ptr %6, align 8
  %26 = add i64 %25, 1
  store i64 %26, ptr %6, align 8
  br label %8, !llvm.loop !24

27:                                               ; preds = %8
  store i1 true, ptr %3, align 1
  br label %28

28:                                               ; preds = %27, %22
  %29 = load i1, ptr %3, align 1
  ret i1 %29
}

; Function Attrs: mustprogress uwtable
define linkonce_odr hidden i64 @_ZN7nanoguimiERKNS_5ArrayIiLm2EEES3_(ptr noundef nonnull align 4 dereferenceable(8) %0, ptr noundef nonnull align 4 dereferenceable(8) %1) #0 comdat {
  %3 = alloca %"struct.nanogui::Array", align 4
  %4 = alloca ptr, align 8
  %5 = alloca ptr, align 8
  %6 = alloca i64, align 8
  store ptr %0, ptr %4, align 8
  store ptr %1, ptr %5, align 8
  call void @_ZN7nanogui5ArrayIiLm2EEC2Ev(ptr noundef nonnull align 4 dereferenceable(8) %3)
  store i64 0, ptr %6, align 8
  br label %7

7:                                                ; preds = %24, %2
  %8 = load i64, ptr %6, align 8
  %9 = icmp ult i64 %8, 2
  br i1 %9, label %10, label %27

10:                                               ; preds = %7
  %11 = load ptr, ptr %4, align 8
  %12 = getelementptr inbounds %"struct.nanogui::Array", ptr %11, i32 0, i32 0
  %13 = load i64, ptr %6, align 8
  %14 = getelementptr inbounds [2 x i32], ptr %12, i64 0, i64 %13
  %15 = load i32, ptr %14, align 4
  %16 = load ptr, ptr %5, align 8
  %17 = getelementptr inbounds %"struct.nanogui::Array", ptr %16, i32 0, i32 0
  %18 = load i64, ptr %6, align 8
  %19 = getelementptr inbounds [2 x i32], ptr %17, i64 0, i64 %18
  %20 = load i32, ptr %19, align 4
  %21 = sub nsw i32 %15, %20
  %22 = load i64, ptr %6, align 8
  %23 = call noundef nonnull align 4 dereferenceable(4) ptr @_ZN7nanogui5ArrayIiLm2EEixEm(ptr noundef nonnull align 4 dereferenceable(8) %3, i64 noundef %22)
  store i32 %21, ptr %23, align 4
  br label %24

24:                                               ; preds = %10
  %25 = load i64, ptr %6, align 8
  %26 = add i64 %25, 1
  store i64 %26, ptr %6, align 8
  br label %7, !llvm.loop !17

27:                                               ; preds = %7
  %28 = getelementptr inbounds %"struct.nanogui::Array", ptr %3, i32 0, i32 0
  %29 = load i64, ptr %28, align 4
  ret i64 %29
}

; Function Attrs: mustprogress uwtable
define linkonce_odr hidden noundef zeroext i1 @_ZNK7nanogui5ArrayIiLm2EEneERKS1_(ptr noundef nonnull align 4 dereferenceable(8) %0, ptr noundef nonnull align 4 dereferenceable(8) %1) #0 comdat align 2 {
  %3 = alloca ptr, align 8
  %4 = alloca ptr, align 8
  store ptr %0, ptr %3, align 8
  store ptr %1, ptr %4, align 8
  %5 = load ptr, ptr %3, align 8
  %6 = load ptr, ptr %4, align 8
  %7 = call noundef zeroext i1 @_ZNK7nanogui5ArrayIiLm2EEeqERKS1_(ptr noundef nonnull align 4 dereferenceable(8) %5, ptr noundef nonnull align 4 dereferenceable(8) %6)
  %8 = xor i1 %7, true
  ret i1 %8
}

; Function Attrs: mustprogress nounwind uwtable
define linkonce_odr hidden void @_ZN7nanogui5ArrayIiLm2EEC2Ei(ptr noundef nonnull align 4 dereferenceable(8) %0, i32 noundef %1) unnamed_addr #2 comdat align 2 {
  %3 = alloca ptr, align 8
  %4 = alloca i32, align 4
  %5 = alloca i64, align 8
  store ptr %0, ptr %3, align 8
  store i32 %1, ptr %4, align 4
  %6 = load ptr, ptr %3, align 8
  store i64 0, ptr %5, align 8
  br label %7

7:                                                ; preds = %15, %2
  %8 = load i64, ptr %5, align 8
  %9 = icmp ult i64 %8, 2
  br i1 %9, label %10, label %18

10:                                               ; preds = %7
  %11 = load i32, ptr %4, align 4
  %12 = getelementptr inbounds %"struct.nanogui::Array", ptr %6, i32 0, i32 0
  %13 = load i64, ptr %5, align 8
  %14 = getelementptr inbounds [2 x i32], ptr %12, i64 0, i64 %13
  store i32 %11, ptr %14, align 4
  br label %15

15:                                               ; preds = %10
  %16 = load i64, ptr %5, align 8
  %17 = add i64 %16, 1
  store i64 %17, ptr %5, align 8
  br label %7, !llvm.loop !5

18:                                               ; preds = %7
  ret void
}

; Function Attrs: mustprogress uwtable
define hidden noundef zeroext i1 @_ZN7nanogui8TextArea16mouse_drag_eventERKNS_5ArrayIiLm2EEES4_ii(ptr noundef nonnull align 8 dereferenceable(288) %0, ptr noundef nonnull align 4 dereferenceable(8) %1, ptr noundef nonnull align 4 dereferenceable(8) %2, i32 noundef %3, i32 noundef %4) unnamed_addr #0 align 2 {
  %6 = alloca i1, align 1
  %7 = alloca ptr, align 8
  %8 = alloca ptr, align 8
  %9 = alloca ptr, align 8
  %10 = alloca i32, align 4
  %11 = alloca i32, align 4
  %12 = alloca %"struct.nanogui::Array", align 4
  %13 = alloca %"struct.nanogui::Array", align 4
  %14 = alloca %"struct.nanogui::Array", align 4
  %15 = alloca %"struct.nanogui::Array", align 4
  %16 = alloca %"struct.nanogui::Array", align 4
  store ptr %0, ptr %7, align 8
  store ptr %1, ptr %8, align 8
  store ptr %2, ptr %9, align 8
  store i32 %3, ptr %10, align 4
  store i32 %4, ptr %11, align 4
  %17 = load ptr, ptr %7, align 8
  %18 = getelementptr inbounds %"class.nanogui::TextArea", ptr %17, i32 0, i32 10
  call void @_ZN7nanogui5ArrayIiLm2EEC2Ei(ptr noundef nonnull align 4 dereferenceable(8) %12, i32 noundef -1)
  %19 = call noundef zeroext i1 @_ZNK7nanogui5ArrayIiLm2EEneERKS1_(ptr noundef nonnull align 4 dereferenceable(8) %18, ptr noundef nonnull align 4 dereferenceable(8) %12)
  br i1 %19, label %20, label %24

20:                                               ; preds = %5
  %21 = getelementptr inbounds %"class.nanogui::TextArea", ptr %17, i32 0, i32 9
  %22 = load i8, ptr %21, align 4
  %23 = trunc i8 %22 to i1
  br label %24

24:                                               ; preds = %20, %5
  %25 = phi i1 [ false, %5 ], [ %23, %20 ]
  br i1 %25, label %26, label %38

26:                                               ; preds = %24
  %27 = load ptr, ptr %8, align 8
  %28 = getelementptr inbounds %"class.nanogui::Widget", ptr %17, i32 0, i32 5
  %29 = call i64 @_ZN7nanoguimiERKNS_5ArrayIiLm2EEES3_(ptr noundef nonnull align 4 dereferenceable(8) %27, ptr noundef nonnull align 4 dereferenceable(8) %28)
  %30 = getelementptr inbounds %"struct.nanogui::Array", ptr %15, i32 0, i32 0
  store i64 %29, ptr %30, align 4
  %31 = getelementptr inbounds %"class.nanogui::TextArea", ptr %17, i32 0, i32 8
  %32 = load i32, ptr %31, align 8
  call void @_ZN7nanogui5ArrayIiLm2EEC2Ei(ptr noundef nonnull align 4 dereferenceable(8) %16, i32 noundef %32)
  %33 = call i64 @_ZN7nanoguimiERKNS_5ArrayIiLm2EEES3_(ptr noundef nonnull align 4 dereferenceable(8) %15, ptr noundef nonnull align 4 dereferenceable(8) %16)
  %34 = getelementptr inbounds %"struct.nanogui::Array", ptr %14, i32 0, i32 0
  store i64 %33, ptr %34, align 4
  %35 = call i64 @_ZNK7nanogui8TextArea17position_to_blockERKNS_5ArrayIiLm2EEE(ptr noundef nonnull align 8 dereferenceable(288) %17, ptr noundef nonnull align 4 dereferenceable(8) %14)
  %36 = getelementptr inbounds %"struct.nanogui::Array", ptr %13, i32 0, i32 0
  store i64 %35, ptr %36, align 4
  %37 = getelementptr inbounds %"class.nanogui::TextArea", ptr %17, i32 0, i32 11
  call void @llvm.memcpy.p0.p0.i64(ptr align 8 %37, ptr align 4 %13, i64 8, i1 false)
  store i1 true, ptr %6, align 1
  br label %39

38:                                               ; preds = %24
  store i1 false, ptr %6, align 1
  br label %39

39:                                               ; preds = %38, %26
  %40 = load i1, ptr %6, align 1
  ret i1 %40
}