; Function Attrs: mustprogress uwtable
define hidden noundef zeroext i1 @_ZN7nanogui8TextArea16mouse_drag_eventERKNS_5ArrayIiLm2EEES4_ii(ptr noundef nonnull align 8 dereferenceable(288) %0, ptr nocapture noundef nonnull readonly align 4 dereferenceable(8) %1, ptr nocapture nonnull readnone align 4 %2, i32 %3, i32 %4) unnamed_addr #4 align 2 {
_ZN7nanogui5ArrayIiLm2EEC2Ei.exit.critedge:
  %5 = alloca %"struct.nanogui::Array", align 8
  %6 = getelementptr inbounds i8, ptr %0, i64 272
  br label %7

7:                                                ; preds = %7, %_ZN7nanogui5ArrayIiLm2EEC2Ei.exit.critedge
  %.not8.i.i = phi i1 [ true, %_ZN7nanogui5ArrayIiLm2EEC2Ei.exit.critedge ], [ false, %7 ]
  %.07.i.i = phi i64 [ 0, %_ZN7nanogui5ArrayIiLm2EEC2Ei.exit.critedge ], [ 1, %7 ]
  %8 = getelementptr inbounds [2 x i32], ptr %6, i64 0, i64 %.07.i.i
  %9 = load i32, ptr %8, align 4
  %.not.i.i = icmp eq i32 %9, -1
  %or.cond.i.i = and i1 %.not8.i.i, %.not.i.i
  br i1 %or.cond.i.i, label %7, label %_ZNK7nanogui5ArrayIiLm2EEneERKS1_.exit, !llvm.loop !12

_ZNK7nanogui5ArrayIiLm2EEneERKS1_.exit:           ; preds = %7
  br i1 %.not.i.i, label %.critedge, label %10

10:                                               ; preds = %_ZNK7nanogui5ArrayIiLm2EEneERKS1_.exit
  %11 = getelementptr inbounds i8, ptr %0, i64 268
  %12 = load i8, ptr %11, align 4
  %13 = and i8 %12, 1
  %.not = icmp eq i8 %13, 0
  br i1 %.not, label %.critedge, label %_ZN7nanoguimiERKNS_5ArrayIiLm2EEES3_.exit.critedge

_ZN7nanoguimiERKNS_5ArrayIiLm2EEES3_.exit.critedge: ; preds = %10
  %14 = getelementptr inbounds i8, ptr %0, i64 40
  %15 = getelementptr inbounds i8, ptr %0, i64 264
  %16 = load <4 x i32>, ptr %15, align 8
  %17 = load <2 x i32>, ptr %1, align 4
  %18 = load <2 x i32>, ptr %14, align 8
  %19 = shufflevector <4 x i32> %16, <4 x i32> poison, <2 x i32> zeroinitializer
  %20 = add <2 x i32> %18, %19
  %21 = sub <2 x i32> %17, %20
  store <2 x i32> %21, ptr %5, align 8
  %22 = call i64 @_ZNK7nanogui8TextArea17position_to_blockERKNS_5ArrayIiLm2EEE(ptr noundef nonnull align 8 dereferenceable(288) %0, ptr noundef nonnull align 4 dereferenceable(8) %5)
  %23 = getelementptr inbounds i8, ptr %0, i64 280
  store i64 %22, ptr %23, align 8
  br label %.critedge

.critedge:                                        ; preds = %10, %_ZNK7nanogui5ArrayIiLm2EEneERKS1_.exit, %_ZN7nanoguimiERKNS_5ArrayIiLm2EEES3_.exit.critedge
  %.0 = phi i1 [ true, %_ZN7nanoguimiERKNS_5ArrayIiLm2EEES3_.exit.critedge ], [ false, %_ZNK7nanogui5ArrayIiLm2EEneERKS1_.exit ], [ false, %10 ]
  ret i1 %.0
}